; Function Attrs: mustprogress nofree norecurse nosync nounwind willreturn memory(readwrite, inaccessiblemem: none) uwtable
define internal void @cff_builder_close_contour(ptr noundef readonly captures(none) %0) #5 {
  %2 = getelementptr inbounds nuw i8, ptr %0, i64 40
  %3 = load ptr, ptr %2, align 8
  %.not = icmp eq ptr %3, null
  br i1 %.not, label %73, label %4

4:                                                ; preds = %1
  %5 = load i16, ptr %3, align 8
  %6 = icmp ult i16 %5, 2
  br i1 %6, label %16, label %.thread

.thread:                                          ; preds = %4
  %7 = zext i16 %5 to i64
  %8 = getelementptr inbounds nuw i8, ptr %3, i64 24
  %9 = load ptr, ptr %8, align 8
  %10 = add nuw nsw i64 %7, 4294967294
  %11 = and i64 %10, 4294967295
  %12 = getelementptr inbounds nuw i16, ptr %9, i64 %11
  %13 = load i16, ptr %12, align 2
  %14 = zext i16 %13 to i32
  %15 = add nuw nsw i32 %14, 1
  br label %17

16:                                               ; preds = %4
  %.not33 = icmp eq i16 %5, 0
  br i1 %.not33, label %._crit_edge, label %17

._crit_edge:                                      ; preds = %16
  %.phi.trans.insert = getelementptr inbounds nuw i8, ptr %3, i64 2
  %.pre = load i16, ptr %.phi.trans.insert, align 2
  br label %25

17:                                               ; preds = %.thread, %16
  %18 = phi i32 [ %15, %.thread ], [ 0, %16 ]
  %19 = getelementptr inbounds nuw i8, ptr %3, i64 2
  %20 = load i16, ptr %19, align 2
  %21 = zext i16 %20 to i32
  %22 = icmp eq i32 %18, %21
  br i1 %22, label %23, label %25

23:                                               ; preds = %17
  %24 = add i16 %5, -1
  store i16 %24, ptr %3, align 8
  br label %73

25:                                               ; preds = %._crit_edge, %17
  %26 = phi i16 [ %20, %17 ], [ %.pre, %._crit_edge ]
  %.not3337 = phi i1 [ false, %17 ], [ true, %._crit_edge ]
  %27 = phi i32 [ %18, %17 ], [ 0, %._crit_edge ]
  %28 = getelementptr inbounds nuw i8, ptr %3, i64 2
  %29 = icmp ugt i16 %26, 1
  br i1 %29, label %30, label %56

30:                                               ; preds = %25
  %31 = getelementptr inbounds nuw i8, ptr %3, i64 8
  %32 = load ptr, ptr %31, align 8
  %33 = zext nneg i32 %27 to i64
  %34 = getelementptr inbounds nuw %struct.FT_Vector_, ptr %32, i64 %33
  %35 = zext i16 %26 to i64
  %36 = getelementptr inbounds nuw %struct.FT_Vector_, ptr %32, i64 %35
  %37 = getelementptr inbounds i8, ptr %36, i64 -16
  %38 = getelementptr inbounds nuw i8, ptr %3, i64 16
  %39 = load ptr, ptr %38, align 8
  %40 = getelementptr inbounds nuw i8, ptr %39, i64 %35
  %41 = getelementptr inbounds i8, ptr %40, i64 -1
  %42 = load i64, ptr %34, align 8
  %43 = load i64, ptr %37, align 8
  %44 = icmp eq i64 %42, %43
  br i1 %44, label %45, label %56

45:                                               ; preds = %30
  %46 = getelementptr inbounds nuw i8, ptr %34, i64 8
  %47 = load i64, ptr %46, align 8
  %48 = getelementptr inbounds i8, ptr %36, i64 -8
  %49 = load i64, ptr %48, align 8
  %50 = icmp eq i64 %47, %49
  br i1 %50, label %51, label %56

51:                                               ; preds = %45
  %52 = load i8, ptr %41, align 1
  %53 = icmp eq i8 %52, 1
  br i1 %53, label %54, label %56

54:                                               ; preds = %51
  %55 = add i16 %26, -1
  store i16 %55, ptr %28, align 2
  br label %56

56:                                               ; preds = %30, %45, %54, %51, %25
  %57 = phi i16 [ %26, %30 ], [ %26, %45 ], [ %55, %54 ], [ %26, %51 ], [ %26, %25 ]
  %58 = zext i16 %5 to i64
  br i1 %.not3337, label %73, label %59

59:                                               ; preds = %56
  %60 = zext i16 %57 to i32
  %61 = add nsw i32 %60, -1
  %62 = icmp eq i32 %27, %61
  br i1 %62, label %63, label %66

63:                                               ; preds = %59
  %64 = add i16 %5, -1
  store i16 %64, ptr %3, align 8
  %65 = add i16 %57, -1
  store i16 %65, ptr %28, align 2
  br label %73

66:                                               ; preds = %59
  %67 = trunc i32 %61 to i16
  %68 = getelementptr inbounds nuw i8, ptr %3, i64 24
  %69 = load ptr, ptr %68, align 8
  %70 = add nuw nsw i64 %58, 4294967295
  %71 = and i64 %70, 4294967295
  %72 = getelementptr inbounds nuw i16, ptr %69, i64 %71
  store i16 %67, ptr %72, align 2
  br label %73

73:                                               ; preds = %63, %66, %1, %56, %23
  ret void
}